; Function Attrs: nounwind uwtable
define range(i32 -1, 1) i32 @dt_bauhaus_slider_get_feedback(ptr noundef %0) local_unnamed_addr #0 {
  %2 = load atomic i64, ptr @dt_bh_get_type.static_g_define_type_id seq_cst, align 8
  %.not.i.i = icmp eq i64 %2, 0
  br i1 %.not.i.i, label %3, label %DT_BAUHAUS_WIDGET.exit

3:                                                ; preds = %1
  %4 = tail call i32 @g_once_init_enter(ptr noundef nonnull @dt_bh_get_type.static_g_define_type_id) #19
  %.not4.i.i = icmp eq i32 %4, 0
  br i1 %.not4.i.i, label %DT_BAUHAUS_WIDGET.exit, label %5

5:                                                ; preds = %3
  %6 = tail call fastcc i64 @dt_bh_get_type_once()
  tail call void @g_once_init_leave(ptr noundef nonnull @dt_bh_get_type.static_g_define_type_id, i64 noundef %6) #19
  br label %DT_BAUHAUS_WIDGET.exit

DT_BAUHAUS_WIDGET.exit:                           ; preds = %1, %3, %5
  %7 = load i64, ptr @dt_bh_get_type.static_g_define_type_id, align 8, !tbaa !6
  %8 = tail call ptr @g_type_check_instance_cast(ptr noundef %0, i64 noundef %7) #19
  %9 = getelementptr inbounds nuw i8, ptr %8, i64 40
  %10 = load i32, ptr %9, align 8, !tbaa !105
  %.not = icmp eq i32 %10, 1
  br i1 %.not, label %11, label %17

11:                                               ; preds = %DT_BAUHAUS_WIDGET.exit
  %12 = getelementptr inbounds nuw i8, ptr %8, i64 480
  %13 = load i8, ptr %12, align 8
  %14 = and i8 %13, 1
  %15 = sub nsw i8 0, %14
  %16 = sext i8 %15 to i32
  br label %17

17:                                               ; preds = %DT_BAUHAUS_WIDGET.exit, %11
  %.0 = phi i32 [ %16, %11 ], [ 0, %DT_BAUHAUS_WIDGET.exit ]
  ret i32 %.0
}